target datalayout = "e-m:e-p270:32:32-p271:32:32-p272:64:64-i64:64-i128:128-f80:128-n8:16:32:64-S128"
target triple = "x86_64-unknown-linux-gnu"

%struct.Chardev = type { %struct.Object, %struct.QemuMutex, ptr, ptr, ptr, i32, i32, i8, ptr, ptr, [1 x i64] }
%struct.Object = type { ptr, ptr, ptr, i32, ptr }
%struct.QemuMutex = type { %union.pthread_mutex_t, i8 }
%union.pthread_mutex_t = type { %struct.__pthread_mutex_s }
%struct.__pthread_mutex_s = type { i32, i32, i32, i32, i32, i16, i16, %struct.__pthread_internal_list }
%struct.__pthread_internal_list = type { ptr, ptr }
%struct.ChardevClass = type { %struct.ObjectClass, i8, i8, ptr, ptr, ptr, ptr, ptr, ptr, ptr, ptr, ptr, ptr, ptr, ptr, ptr, ptr, ptr, ptr }
%struct.ObjectClass = type { ptr, ptr, [4 x ptr], [4 x ptr], ptr, ptr }
%struct.ChardevCommon = type { ptr, i8, i8 }
%struct.ChardevBackend = type { i32, %union.anon }
%union.anon = type { %struct.ChardevFileWrapper }
%struct.ChardevFileWrapper = type { ptr }
%struct.ChardevCommonWrapper = type { ptr }

@.str.2 = private unnamed_addr constant [23 x i8] c"../qemu/chardev/char.c\00", align 1
@.str.4 = private unnamed_addr constant [8 x i8] c"chardev\00", align 1
@.str.104 = private unnamed_addr constant [101 x i8] c"/home/dtcxzyw/WorkSpace/Projects/compilers/llvm-opt-benchmark/bench/qemu/qemu/include/chardev/char.h\00", align 1
@__func__.CHARDEV_GET_CLASS = private unnamed_addr constant [18 x i8] c"CHARDEV_GET_CLASS\00", align 1
@.str.112 = private unnamed_addr constant [9 x i8] c"chardev-\00", align 1
@__func__.CHARDEV = private unnamed_addr constant [8 x i8] c"CHARDEV\00", align 1
@.str.116 = private unnamed_addr constant [39 x i8] c"g_str_has_prefix(typename, \22chardev-\22)\00", align 1
@__PRETTY_FUNCTION__.chardev_new = private unnamed_addr constant [100 x i8] c"Chardev *chardev_new(const char *, const char *, ChardevBackend *, GMainContext *, _Bool, Error **)\00", align 1
@.str.117 = private unnamed_addr constant [3 x i8] c"id\00", align 1

; Function Attrs: nounwind sspstrong uwtable
define internal ptr @CHARDEV_GET_CLASS(ptr noundef %obj) #0 {
entry:
  %obj.addr = alloca ptr, align 8
  store ptr %obj, ptr %obj.addr, align 8
  %0 = load ptr, ptr %obj.addr, align 8
  %call = call ptr @object_get_class(ptr noundef %0)
  %call1 = call ptr @object_class_dynamic_cast_assert(ptr noundef %call, ptr noundef @.str.4, ptr noundef @.str.104, i32 noundef 231, ptr noundef @__func__.CHARDEV_GET_CLASS)
  ret ptr %call1
}

; Function Attrs: nounwind sspstrong uwtable
define dso_local void @qemu_chr_be_event(ptr noundef %s, i32 noundef %event) #0 {
entry:
  %s.addr = alloca ptr, align 8
  %event.addr = alloca i32, align 4
  store ptr %s, ptr %s.addr, align 8
  store i32 %event, ptr %event.addr, align 4
  %0 = load i32, ptr %event.addr, align 4
  switch i32 %0, label %sw.epilog [
    i32 1, label %sw.bb
    i32 4, label %sw.bb1
    i32 0, label %sw.bb3
    i32 2, label %sw.bb3
    i32 3, label %sw.bb3
  ]

sw.bb:                                            ; preds = %entry
  %1 = load ptr, ptr %s.addr, align 8
  %be_open = getelementptr inbounds %struct.Chardev, ptr %1, i32 0, i32 6
  store i32 1, ptr %be_open, align 4
  br label %sw.epilog

sw.bb1:                                           ; preds = %entry
  %2 = load ptr, ptr %s.addr, align 8
  %be_open2 = getelementptr inbounds %struct.Chardev, ptr %2, i32 0, i32 6
  store i32 0, ptr %be_open2, align 4
  br label %sw.epilog

sw.bb3:                                           ; preds = %entry, %entry, %entry
  br label %sw.epilog

sw.epilog:                                        ; preds = %sw.bb3, %sw.bb1, %sw.bb, %entry
  %3 = load ptr, ptr %s.addr, align 8
  %call = call ptr @CHARDEV_GET_CLASS(ptr noundef %3)
  %chr_be_event = getelementptr inbounds %struct.ChardevClass, ptr %call, i32 0, i32 18
  %4 = load ptr, ptr %chr_be_event, align 8
  %5 = load ptr, ptr %s.addr, align 8
  %6 = load i32, ptr %event.addr, align 4
  call void %4(ptr noundef %5, i32 noundef %6)
  ret void
}

; Function Attrs: nounwind sspstrong uwtable
define internal void @qemu_char_open(ptr noundef %chr, ptr noundef %backend, ptr noundef %be_opened, ptr noundef %errp) #0 {
entry:
  %chr.addr = alloca ptr, align 8
  %backend.addr = alloca ptr, align 8
  %be_opened.addr = alloca ptr, align 8
  %errp.addr = alloca ptr, align 8
  %cc = alloca ptr, align 8
  %common = alloca ptr, align 8
  %flags = alloca i32, align 4
  store ptr %chr, ptr %chr.addr, align 8
  store ptr %backend, ptr %backend.addr, align 8
  store ptr %be_opened, ptr %be_opened.addr, align 8
  store ptr %errp, ptr %errp.addr, align 8
  %0 = load ptr, ptr %chr.addr, align 8
  %call = call ptr @CHARDEV_GET_CLASS(ptr noundef %0)
  store ptr %call, ptr %cc, align 8
  %1 = load ptr, ptr %backend.addr, align 8
  %tobool = icmp ne ptr %1, null
  br i1 %tobool, label %cond.true, label %cond.false

cond.true:                                        ; preds = %entry
  %2 = load ptr, ptr %backend.addr, align 8
  %u = getelementptr inbounds %struct.ChardevBackend, ptr %2, i32 0, i32 1
  %data = getelementptr inbounds %struct.ChardevCommonWrapper, ptr %u, i32 0, i32 0
  %3 = load ptr, ptr %data, align 8
  br label %cond.end

cond.false:                                       ; preds = %entry
  br label %cond.end

cond.end:                                         ; preds = %cond.false, %cond.true
  %cond = phi ptr [ %3, %cond.true ], [ null, %cond.false ]
  store ptr %cond, ptr %common, align 8
  %4 = load ptr, ptr %common, align 8
  %tobool1 = icmp ne ptr %4, null
  br i1 %tobool1, label %land.lhs.true, label %if.end13

land.lhs.true:                                    ; preds = %cond.end
  %5 = load ptr, ptr %common, align 8
  %logfile = getelementptr inbounds %struct.ChardevCommon, ptr %5, i32 0, i32 0
  %6 = load ptr, ptr %logfile, align 8
  %tobool2 = icmp ne ptr %6, null
  br i1 %tobool2, label %if.then, label %if.end13

if.then:                                          ; preds = %land.lhs.true
  store i32 1, ptr %flags, align 4
  %7 = load ptr, ptr %common, align 8
  %has_logappend = getelementptr inbounds %struct.ChardevCommon, ptr %7, i32 0, i32 1
  %8 = load i8, ptr %has_logappend, align 8
  %tobool3 = trunc i8 %8 to i1
  br i1 %tobool3, label %land.lhs.true4, label %if.else

land.lhs.true4:                                   ; preds = %if.then
  %9 = load ptr, ptr %common, align 8
  %logappend = getelementptr inbounds %struct.ChardevCommon, ptr %9, i32 0, i32 2
  %10 = load i8, ptr %logappend, align 1
  %tobool5 = trunc i8 %10 to i1
  br i1 %tobool5, label %if.then6, label %if.else

if.then6:                                         ; preds = %land.lhs.true4
  %11 = load i32, ptr %flags, align 4
  %or = or i32 %11, 1024
  store i32 %or, ptr %flags, align 4
  br label %if.end

if.else:                                          ; preds = %land.lhs.true4, %if.then
  %12 = load i32, ptr %flags, align 4
  %or7 = or i32 %12, 512
  store i32 %or7, ptr %flags, align 4
  br label %if.end

if.end:                                           ; preds = %if.else, %if.then6
  %13 = load ptr, ptr %common, align 8
  %logfile8 = getelementptr inbounds %struct.ChardevCommon, ptr %13, i32 0, i32 0
  %14 = load ptr, ptr %logfile8, align 8
  %15 = load i32, ptr %flags, align 4
  %16 = load ptr, ptr %errp.addr, align 8
  %call9 = call i32 @qemu_create(ptr noundef %14, i32 noundef %15, i32 noundef 438, ptr noundef %16)
  %17 = load ptr, ptr %chr.addr, align 8
  %logfd = getelementptr inbounds %struct.Chardev, ptr %17, i32 0, i32 5
  store i32 %call9, ptr %logfd, align 8
  %18 = load ptr, ptr %chr.addr, align 8
  %logfd10 = getelementptr inbounds %struct.Chardev, ptr %18, i32 0, i32 5
  %19 = load i32, ptr %logfd10, align 8
  %cmp = icmp slt i32 %19, 0
  br i1 %cmp, label %if.then11, label %if.end12

if.then11:                                        ; preds = %if.end
  br label %if.end17

if.end12:                                         ; preds = %if.end
  br label %if.end13

if.end13:                                         ; preds = %if.end12, %land.lhs.true, %cond.end
  %20 = load ptr, ptr %cc, align 8
  %open = getelementptr inbounds %struct.ChardevClass, ptr %20, i32 0, i32 4
  %21 = load ptr, ptr %open, align 8
  %tobool14 = icmp ne ptr %21, null
  br i1 %tobool14, label %if.then15, label %if.end17

if.then15:                                        ; preds = %if.end13
  %22 = load ptr, ptr %cc, align 8
  %open16 = getelementptr inbounds %struct.ChardevClass, ptr %22, i32 0, i32 4
  %23 = load ptr, ptr %open16, align 8
  %24 = load ptr, ptr %chr.addr, align 8
  %25 = load ptr, ptr %backend.addr, align 8
  %26 = load ptr, ptr %be_opened.addr, align 8
  %27 = load ptr, ptr %errp.addr, align 8
  call void %23(ptr noundef %24, ptr noundef %25, ptr noundef %26, ptr noundef %27)
  br label %if.end17

if.end17:                                         ; preds = %if.then15, %if.end13, %if.then11
  ret void
}

; Function Attrs: nounwind sspstrong uwtable
define internal ptr @CHARDEV(ptr noundef %obj) #0 {
entry:
  %obj.addr = alloca ptr, align 8
  store ptr %obj, ptr %obj.addr, align 8
  %0 = load ptr, ptr %obj.addr, align 8
  %call = call ptr @object_dynamic_cast_assert(ptr noundef %0, ptr noundef @.str.4, ptr noundef @.str.104, i32 noundef 231, ptr noundef @__func__.CHARDEV)
  ret ptr %call
}

; Function Attrs: nounwind sspstrong uwtable
define internal ptr @chardev_new(ptr noundef %id, ptr noundef %typename, ptr noundef %backend, ptr noundef %gcontext, i1 noundef zeroext %handover_yank_instance, ptr noundef %errp) #0 {
entry:
  %retval = alloca ptr, align 8
  %id.addr = alloca ptr, align 8
  %typename.addr = alloca ptr, align 8
  %backend.addr = alloca ptr, align 8
  %gcontext.addr = alloca ptr, align 8
  %handover_yank_instance.addr = alloca i8, align 1
  %errp.addr = alloca ptr, align 8
  %obj = alloca ptr, align 8
  %chr = alloca ptr, align 8
  %local_err = alloca ptr, align 8
  %be_opened = alloca i8, align 1
  store ptr %id, ptr %id.addr, align 8
  store ptr %typename, ptr %typename.addr, align 8
  store ptr %backend, ptr %backend.addr, align 8
  store ptr %gcontext, ptr %gcontext.addr, align 8
  %frombool = zext i1 %handover_yank_instance to i8
  store i8 %frombool, ptr %handover_yank_instance.addr, align 1
  store ptr %errp, ptr %errp.addr, align 8
  store ptr null, ptr %chr, align 8
  store ptr null, ptr %local_err, align 8
  store i8 1, ptr %be_opened, align 1
  %0 = load ptr, ptr %typename.addr, align 8
  %call = call i32 @g_str_has_prefix(ptr noundef %0, ptr noundef @.str.112)
  %tobool = icmp ne i32 %call, 0
  br i1 %tobool, label %if.then, label %if.else

if.then:                                          ; preds = %entry
  br label %if.end

if.else:                                          ; preds = %entry
  call void @__assert_fail(ptr noundef @.str.116, ptr noundef @.str.2, i32 noundef 947, ptr noundef @__PRETTY_FUNCTION__.chardev_new) #10
  unreachable

if.end:                                           ; preds = %if.then
  %1 = load ptr, ptr %id.addr, align 8
  %tobool1 = icmp ne ptr %1, null
  br i1 %tobool1, label %if.then2, label %if.else3

if.then2:                                         ; preds = %if.end
  br label %if.end4

if.else3:                                         ; preds = %if.end
  call void @__assert_fail(ptr noundef @.str.117, ptr noundef @.str.2, i32 noundef 948, ptr noundef @__PRETTY_FUNCTION__.chardev_new) #10
  unreachable

if.end4:                                          ; preds = %if.then2
  %2 = load ptr, ptr %typename.addr, align 8
  %call5 = call ptr @object_new(ptr noundef %2)
  store ptr %call5, ptr %obj, align 8
  %3 = load ptr, ptr %obj, align 8
  %call6 = call ptr @CHARDEV(ptr noundef %3)
  store ptr %call6, ptr %chr, align 8
  %4 = load i8, ptr %handover_yank_instance.addr, align 1
  %tobool7 = trunc i8 %4 to i1
  %5 = load ptr, ptr %chr, align 8
  %handover_yank_instance8 = getelementptr inbounds %struct.Chardev, ptr %5, i32 0, i32 7
  %frombool9 = zext i1 %tobool7 to i8
  store i8 %frombool9, ptr %handover_yank_instance8, align 8
  %6 = load ptr, ptr %id.addr, align 8
  %call10 = call noalias ptr @g_strdup(ptr noundef %6)
  %7 = load ptr, ptr %chr, align 8
  %label = getelementptr inbounds %struct.Chardev, ptr %7, i32 0, i32 3
  store ptr %call10, ptr %label, align 8
  %8 = load ptr, ptr %gcontext.addr, align 8
  %9 = load ptr, ptr %chr, align 8
  %gcontext11 = getelementptr inbounds %struct.Chardev, ptr %9, i32 0, i32 9
  store ptr %8, ptr %gcontext11, align 8
  %10 = load ptr, ptr %chr, align 8
  %11 = load ptr, ptr %backend.addr, align 8
  call void @qemu_char_open(ptr noundef %10, ptr noundef %11, ptr noundef %be_opened, ptr noundef %local_err)
  %12 = load ptr, ptr %local_err, align 8
  %tobool12 = icmp ne ptr %12, null
  br i1 %tobool12, label %if.then13, label %if.end14

if.then13:                                        ; preds = %if.end4
  %13 = load ptr, ptr %errp.addr, align 8
  %14 = load ptr, ptr %local_err, align 8
  call void @error_propagate(ptr noundef %13, ptr noundef %14)
  %15 = load ptr, ptr %obj, align 8
  call void @object_unref(ptr noundef %15)
  store ptr null, ptr %retval, align 8
  br label %return

if.end14:                                         ; preds = %if.end4
  %16 = load ptr, ptr %chr, align 8
  %filename = getelementptr inbounds %struct.Chardev, ptr %16, i32 0, i32 4
  %17 = load ptr, ptr %filename, align 8
  %tobool15 = icmp ne ptr %17, null
  br i1 %tobool15, label %if.end19, label %if.then16

if.then16:                                        ; preds = %if.end14
  %18 = load ptr, ptr %typename.addr, align 8
  %add.ptr = getelementptr i8, ptr %18, i64 8
  %call17 = call noalias ptr @g_strdup(ptr noundef %add.ptr)
  %19 = load ptr, ptr %chr, align 8
  %filename18 = getelementptr inbounds %struct.Chardev, ptr %19, i32 0, i32 4
  store ptr %call17, ptr %filename18, align 8
  br label %if.end19

if.end19:                                         ; preds = %if.then16, %if.end14
  %20 = load i8, ptr %be_opened, align 1
  %tobool20 = trunc i8 %20 to i1
  br i1 %tobool20, label %if.then21, label %if.end22

if.then21:                                        ; preds = %if.end19
  %21 = load ptr, ptr %chr, align 8
  call void @qemu_chr_be_event(ptr noundef %21, i32 noundef 1)
  br label %if.end22

if.end22:                                         ; preds = %if.then21, %if.end19
  %22 = load ptr, ptr %chr, align 8
  store ptr %22, ptr %retval, align 8
  br label %return

return:                                           ; preds = %if.end22, %if.then13
  %23 = load ptr, ptr %retval, align 8
  ret ptr %23
}