; Function Attrs: nounwind sspstrong uwtable
define internal fastcc ptr @chardev_new(ptr noundef %id, ptr noundef %typename, ptr noundef %backend, ptr noundef %gcontext, i1 noundef zeroext %handover_yank_instance, ptr noundef %errp) unnamed_addr #0 {
entry:
  %local_err = alloca ptr, align 8
  %be_opened = alloca i8, align 1
  %frombool = zext i1 %handover_yank_instance to i8
  store ptr null, ptr %local_err, align 8
  store i8 1, ptr %be_opened, align 1
  %call = tail call i32 @g_str_has_prefix(ptr noundef %typename, ptr noundef nonnull @.str.112) #13
  %tobool.not = icmp eq i32 %call, 0
  br i1 %tobool.not, label %if.else, label %if.end

if.else:                                          ; preds = %entry
  tail call void @__assert_fail(ptr noundef nonnull @.str.116, ptr noundef nonnull @.str.2, i32 noundef 947, ptr noundef nonnull @__PRETTY_FUNCTION__.chardev_new) #14
  unreachable

if.end:                                           ; preds = %entry
  %tobool1.not = icmp eq ptr %id, null
  br i1 %tobool1.not, label %if.else3, label %if.end4

if.else3:                                         ; preds = %if.end
  tail call void @__assert_fail(ptr noundef nonnull @.str.117, ptr noundef nonnull @.str.2, i32 noundef 948, ptr noundef nonnull @__PRETTY_FUNCTION__.chardev_new) #14
  unreachable

if.end4:                                          ; preds = %if.end
  %call5 = tail call ptr @object_new(ptr noundef %typename) #13
  %call.i = tail call ptr @object_dynamic_cast_assert(ptr noundef %call5, ptr noundef nonnull @.str.4, ptr noundef nonnull @.str.104, i32 noundef 231, ptr noundef nonnull @__func__.CHARDEV) #13
  %handover_yank_instance8 = getelementptr inbounds nuw i8, ptr %call.i, i64 120
  store i8 %frombool, ptr %handover_yank_instance8, align 8
  %call10 = tail call noalias ptr @g_strdup(ptr noundef nonnull %id) #13
  %label = getelementptr inbounds nuw i8, ptr %call.i, i64 96
  store ptr %call10, ptr %label, align 8
  %gcontext11 = getelementptr inbounds nuw i8, ptr %call.i, i64 136
  store ptr %gcontext, ptr %gcontext11, align 8
  %call.i.i = tail call ptr @object_get_class(ptr noundef %call.i) #13
  %call1.i.i = tail call ptr @object_class_dynamic_cast_assert(ptr noundef %call.i.i, ptr noundef nonnull @.str.4, ptr noundef nonnull @.str.104, i32 noundef 231, ptr noundef nonnull @__func__.CHARDEV_GET_CLASS) #13
  %tobool.not.i = icmp eq ptr %backend, null
  br i1 %tobool.not.i, label %if.end13.i, label %cond.end.i

cond.end.i:                                       ; preds = %if.end4
  %u.i = getelementptr inbounds nuw i8, ptr %backend, i64 8
  %0 = load ptr, ptr %u.i, align 8
  %tobool1.not.i = icmp eq ptr %0, null
  br i1 %tobool1.not.i, label %if.end13.i, label %land.lhs.true.i

land.lhs.true.i:                                  ; preds = %cond.end.i
  %1 = load ptr, ptr %0, align 8
  %tobool2.not.i = icmp eq ptr %1, null
  br i1 %tobool2.not.i, label %if.end13.i, label %if.then.i

if.then.i:                                        ; preds = %land.lhs.true.i
  %has_logappend.i = getelementptr inbounds nuw i8, ptr %0, i64 8
  %2 = load i8, ptr %has_logappend.i, align 8
  %tobool3.i = trunc i8 %2 to i1
  br i1 %tobool3.i, label %land.lhs.true4.i, label %if.else.i

land.lhs.true4.i:                                 ; preds = %if.then.i
  %logappend.i = getelementptr inbounds nuw i8, ptr %0, i64 9
  %3 = load i8, ptr %logappend.i, align 1
  %tobool5.i = trunc i8 %3 to i1
  br i1 %tobool5.i, label %if.end.i, label %if.else.i

if.else.i:                                        ; preds = %land.lhs.true4.i, %if.then.i
  br label %if.end.i

if.end.i:                                         ; preds = %if.else.i, %land.lhs.true4.i
  %flags.0.i = phi i32 [ 513, %if.else.i ], [ 1025, %land.lhs.true4.i ]
  %call9.i = call i32 @qemu_create(ptr noundef nonnull %1, i32 noundef %flags.0.i, i32 noundef 438, ptr noundef nonnull %local_err) #13
  %logfd.i = getelementptr inbounds nuw i8, ptr %call.i, i64 112
  store i32 %call9.i, ptr %logfd.i, align 8
  %cmp.i = icmp slt i32 %call9.i, 0
  br i1 %cmp.i, label %qemu_char_open.exit, label %if.end13.i

if.end13.i:                                       ; preds = %if.end.i, %land.lhs.true.i, %cond.end.i, %if.end4
  %open.i = getelementptr inbounds nuw i8, ptr %call1.i.i, i64 112
  %4 = load ptr, ptr %open.i, align 8
  %tobool14.not.i = icmp eq ptr %4, null
  br i1 %tobool14.not.i, label %qemu_char_open.exit, label %if.then15.i

if.then15.i:                                      ; preds = %if.end13.i
  call void %4(ptr noundef nonnull %call.i, ptr noundef %backend, ptr noundef nonnull %be_opened, ptr noundef nonnull %local_err) #13
  br label %qemu_char_open.exit

qemu_char_open.exit:                              ; preds = %if.end.i, %if.end13.i, %if.then15.i
  %5 = load ptr, ptr %local_err, align 8
  %tobool12.not = icmp eq ptr %5, null
  br i1 %tobool12.not, label %if.end14, label %if.then13

if.then13:                                        ; preds = %qemu_char_open.exit
  call void @error_propagate(ptr noundef %errp, ptr noundef nonnull %5) #13
  call void @object_unref(ptr noundef %call5) #13
  br label %return

if.end14:                                         ; preds = %qemu_char_open.exit
  %filename = getelementptr inbounds nuw i8, ptr %call.i, i64 104
  %6 = load ptr, ptr %filename, align 8
  %tobool15.not = icmp eq ptr %6, null
  br i1 %tobool15.not, label %if.then16, label %if.end19

if.then16:                                        ; preds = %if.end14
  %add.ptr = getelementptr i8, ptr %typename, i64 8
  %call17 = call noalias ptr @g_strdup(ptr noundef %add.ptr) #13
  store ptr %call17, ptr %filename, align 8
  br label %if.end19

if.end19:                                         ; preds = %if.then16, %if.end14
  %7 = load i8, ptr %be_opened, align 1
  %tobool20 = trunc i8 %7 to i1
  br i1 %tobool20, label %if.then21, label %return

if.then21:                                        ; preds = %if.end19
  %be_open2.i = getelementptr inbounds nuw i8, ptr %call.i, i64 116
  store i32 1, ptr %be_open2.i, align 4
  %call.i.i12 = call ptr @object_get_class(ptr noundef nonnull %call.i) #13
  %call1.i.i13 = call ptr @object_class_dynamic_cast_assert(ptr noundef %call.i.i12, ptr noundef nonnull @.str.4, ptr noundef nonnull @.str.104, i32 noundef 231, ptr noundef nonnull @__func__.CHARDEV_GET_CLASS) #13
  %chr_be_event.i = getelementptr inbounds nuw i8, ptr %call1.i.i13, i64 224
  %8 = load ptr, ptr %chr_be_event.i, align 8
  call void %8(ptr noundef nonnull %call.i, i32 noundef 1) #13
  br label %return

return:                                           ; preds = %if.end19, %if.then21, %if.then13
  %retval.0 = phi ptr [ null, %if.then13 ], [ %call.i, %if.then21 ], [ %call.i, %if.end19 ]
  ret ptr %retval.0
}